target datalayout = "e-m:e-p270:32:32-p271:32:32-p272:64:64-i64:64-i128:128-f80:128-n8:16:32:64-S128"
target triple = "x86_64-pc-linux-gnu"

@hf_ua3g_subdevice_address = internal global i32 0, align 4
@hf_ua3g_subdevice_opcode = internal global i32 0, align 4
@hf_ua3g_subdevice_parameter_bytes = internal global i32 0, align 4

; Function Attrs: null_pointer_is_valid sspstrong uwtable
define internal void @decode_subdevice_escape(ptr noundef %0, ptr noundef %1, ptr noundef %2, i32 noundef %3, i32 noundef %4) #0 {
  %6 = alloca ptr, align 8
  %7 = alloca ptr, align 8
  %8 = alloca ptr, align 8
  %9 = alloca i32, align 4
  %10 = alloca i32, align 4
  store ptr %0, ptr %6, align 8
  store ptr %1, ptr %7, align 8
  store ptr %2, ptr %8, align 8
  store i32 %3, ptr %9, align 4
  store i32 %4, ptr %10, align 4
  %11 = load ptr, ptr %6, align 8
  %12 = load i32, ptr @hf_ua3g_subdevice_address, align 4
  %13 = load ptr, ptr %7, align 8
  %14 = load i32, ptr %9, align 4
  %15 = call ptr @proto_tree_add_item(ptr noundef %11, i32 noundef %12, ptr noundef %13, i32 noundef %14, i32 noundef 1, i32 noundef 0)
  %16 = load ptr, ptr %6, align 8
  %17 = load i32, ptr @hf_ua3g_subdevice_opcode, align 4
  %18 = load ptr, ptr %7, align 8
  %19 = load i32, ptr %9, align 4
  %20 = add i32 %19, 1
  %21 = call ptr @proto_tree_add_item(ptr noundef %16, i32 noundef %17, ptr noundef %18, i32 noundef %20, i32 noundef 1, i32 noundef 0)
  %22 = load i32, ptr %10, align 4
  %23 = icmp ugt i32 %22, 2
  br i1 %23, label %24, label %33

24:                                               ; preds = %5
  %25 = load ptr, ptr %6, align 8
  %26 = load i32, ptr @hf_ua3g_subdevice_parameter_bytes, align 4
  %27 = load ptr, ptr %7, align 8
  %28 = load i32, ptr %9, align 4
  %29 = add i32 %28, 2
  %30 = load i32, ptr %10, align 4
  %31 = sub i32 %30, 2
  %32 = call ptr @proto_tree_add_item(ptr noundef %25, i32 noundef %26, ptr noundef %27, i32 noundef %29, i32 noundef %31, i32 noundef 0)
  br label %33

33:                                               ; preds = %24, %5
  ret void
}