; Function Attrs: null_pointer_is_valid sspstrong uwtable
define internal fastcc void @decode_subdevice_escape(ptr noundef %0, ptr noundef %1, i32 noundef range(i32 -1, 65535) %2) unnamed_addr #0 {
  %4 = load i32, ptr @hf_ua3g_subdevice_address, align 4
  %5 = tail call ptr @proto_tree_add_item(ptr noundef %0, i32 noundef %4, ptr noundef %1, i32 noundef 3, i32 noundef 1, i32 noundef 0)
  %6 = load i32, ptr @hf_ua3g_subdevice_opcode, align 4
  %7 = tail call ptr @proto_tree_add_item(ptr noundef %0, i32 noundef %6, ptr noundef %1, i32 noundef 4, i32 noundef 1, i32 noundef 0)
  %8 = icmp ugt i32 %2, 2
  br i1 %8, label %9, label %13

9:                                                ; preds = %3
  %10 = load i32, ptr @hf_ua3g_subdevice_parameter_bytes, align 4
  %11 = add nsw i32 %2, -2
  %12 = tail call ptr @proto_tree_add_item(ptr noundef %0, i32 noundef %10, ptr noundef %1, i32 noundef 5, i32 noundef %11, i32 noundef 0)
  br label %13

13:                                               ; preds = %9, %3
  ret void
}